; Function Attrs: mustprogress nofree nounwind willreturn memory(read) uwtable
define noundef i64 @_ZNK3net17PacketNumberQueue18LastIntervalLengthEv(ptr noundef nonnull readonly align 8 dereferenceable(48) %0) local_unnamed_addr #13 align 2 {
  %2 = getelementptr inbounds nuw i8, ptr %0, i64 8
  %3 = tail call noundef ptr @_ZSt18_Rb_tree_decrementPKSt18_Rb_tree_node_base(ptr noundef nonnull %2) #32
  %4 = getelementptr inbounds nuw i8, ptr %3, i64 32
  %5 = load i64, ptr %4, align 8, !tbaa !161
  %6 = getelementptr inbounds nuw i8, ptr %3, i64 40
  %7 = load i64, ptr %6, align 8, !tbaa !163
  %8 = tail call noundef i64 @llvm.usub.sat.i64(i64 %7, i64 %5)
  ret i64 %8
}